target datalayout = "e-m:e-p270:32:32-p271:32:32-p272:64:64-i64:64-i128:128-f80:128-n8:16:32:64-S128"
target triple = "x86_64-pc-linux-gnu"

@.str.4 = private unnamed_addr constant [2 x i8] c"\0A\00", align 1
@.str.5 = private unnamed_addr constant [36 x i8] c"    setundef [options] [selection]\0A\00", align 1
@.str.6 = private unnamed_addr constant [73 x i8] c"This command replaces undef (x) constants with defined (0/1) constants.\0A\00", align 1
@.str.7 = private unnamed_addr constant [15 x i8] c"    -undriven\0A\00", align 1
@.str.8 = private unnamed_addr constant [51 x i8] c"        also set undriven nets to constant values\0A\00", align 1
@.str.9 = private unnamed_addr constant [13 x i8] c"    -expose\0A\00", align 1
@.str.10 = private unnamed_addr constant [66 x i8] c"        also expose undriven nets as inputs (use with -undriven)\0A\00", align 1
@.str.11 = private unnamed_addr constant [11 x i8] c"    -zero\0A\00", align 1
@.str.12 = private unnamed_addr constant [39 x i8] c"        replace with bits cleared (0)\0A\00", align 1
@.str.13 = private unnamed_addr constant [10 x i8] c"    -one\0A\00", align 1
@.str.14 = private unnamed_addr constant [35 x i8] c"        replace with bits set (1)\0A\00", align 1
@.str.15 = private unnamed_addr constant [12 x i8] c"    -undef\0A\00", align 1
@.str.16 = private unnamed_addr constant [65 x i8] c"        replace with undef (x) bits, may be used with -undriven\0A\00", align 1
@.str.17 = private unnamed_addr constant [13 x i8] c"    -anyseq\0A\00", align 1
@.str.18 = private unnamed_addr constant [51 x i8] c"        replace with $anyseq drivers (for formal)\0A\00", align 1
@.str.19 = private unnamed_addr constant [15 x i8] c"    -anyconst\0A\00", align 1
@.str.20 = private unnamed_addr constant [53 x i8] c"        replace with $anyconst drivers (for formal)\0A\00", align 1
@.str.21 = private unnamed_addr constant [20 x i8] c"    -random <seed>\0A\00", align 1
@.str.22 = private unnamed_addr constant [70 x i8] c"        replace with random bits using the specified integer as seed\0A\00", align 1
@.str.23 = private unnamed_addr constant [48 x i8] c"        value for the random number generator.\0A\00", align 1
@.str.24 = private unnamed_addr constant [11 x i8] c"    -init\0A\00", align 1
@.str.25 = private unnamed_addr constant [55 x i8] c"        also create/update init values for flip-flops\0A\00", align 1
@.str.26 = private unnamed_addr constant [13 x i8] c"    -params\0A\00", align 1
@.str.27 = private unnamed_addr constant [42 x i8] c"        replace undef in cell parameters\0A\00", align 1

; Function Attrs: mustprogress uwtable
define internal void @_ZN12_GLOBAL__N_112SetundefPass4helpEv(ptr noundef nonnull align 8 dereferenceable(104) %0) unnamed_addr #4 align 2 {
  %2 = alloca ptr, align 8
  store ptr %0, ptr %2, align 8, !tbaa !6
  call void (ptr, ...) @_ZN5Yosys3logEPKcz(ptr noundef @.str.4)
  call void (ptr, ...) @_ZN5Yosys3logEPKcz(ptr noundef @.str.5)
  call void (ptr, ...) @_ZN5Yosys3logEPKcz(ptr noundef @.str.4)
  call void (ptr, ...) @_ZN5Yosys3logEPKcz(ptr noundef @.str.6)
  call void (ptr, ...) @_ZN5Yosys3logEPKcz(ptr noundef @.str.4)
  call void (ptr, ...) @_ZN5Yosys3logEPKcz(ptr noundef @.str.7)
  call void (ptr, ...) @_ZN5Yosys3logEPKcz(ptr noundef @.str.8)
  call void (ptr, ...) @_ZN5Yosys3logEPKcz(ptr noundef @.str.4)
  call void (ptr, ...) @_ZN5Yosys3logEPKcz(ptr noundef @.str.9)
  call void (ptr, ...) @_ZN5Yosys3logEPKcz(ptr noundef @.str.10)
  call void (ptr, ...) @_ZN5Yosys3logEPKcz(ptr noundef @.str.4)
  call void (ptr, ...) @_ZN5Yosys3logEPKcz(ptr noundef @.str.11)
  call void (ptr, ...) @_ZN5Yosys3logEPKcz(ptr noundef @.str.12)
  call void (ptr, ...) @_ZN5Yosys3logEPKcz(ptr noundef @.str.4)
  call void (ptr, ...) @_ZN5Yosys3logEPKcz(ptr noundef @.str.13)
  call void (ptr, ...) @_ZN5Yosys3logEPKcz(ptr noundef @.str.14)
  call void (ptr, ...) @_ZN5Yosys3logEPKcz(ptr noundef @.str.4)
  call void (ptr, ...) @_ZN5Yosys3logEPKcz(ptr noundef @.str.15)
  call void (ptr, ...) @_ZN5Yosys3logEPKcz(ptr noundef @.str.16)
  call void (ptr, ...) @_ZN5Yosys3logEPKcz(ptr noundef @.str.4)
  call void (ptr, ...) @_ZN5Yosys3logEPKcz(ptr noundef @.str.17)
  call void (ptr, ...) @_ZN5Yosys3logEPKcz(ptr noundef @.str.18)
  call void (ptr, ...) @_ZN5Yosys3logEPKcz(ptr noundef @.str.4)
  call void (ptr, ...) @_ZN5Yosys3logEPKcz(ptr noundef @.str.19)
  call void (ptr, ...) @_ZN5Yosys3logEPKcz(ptr noundef @.str.20)
  call void (ptr, ...) @_ZN5Yosys3logEPKcz(ptr noundef @.str.4)
  call void (ptr, ...) @_ZN5Yosys3logEPKcz(ptr noundef @.str.21)
  call void (ptr, ...) @_ZN5Yosys3logEPKcz(ptr noundef @.str.22)
  call void (ptr, ...) @_ZN5Yosys3logEPKcz(ptr noundef @.str.23)
  call void (ptr, ...) @_ZN5Yosys3logEPKcz(ptr noundef @.str.4)
  call void (ptr, ...) @_ZN5Yosys3logEPKcz(ptr noundef @.str.24)
  call void (ptr, ...) @_ZN5Yosys3logEPKcz(ptr noundef @.str.25)
  call void (ptr, ...) @_ZN5Yosys3logEPKcz(ptr noundef @.str.4)
  call void (ptr, ...) @_ZN5Yosys3logEPKcz(ptr noundef @.str.26)
  call void (ptr, ...) @_ZN5Yosys3logEPKcz(ptr noundef @.str.27)
  call void (ptr, ...) @_ZN5Yosys3logEPKcz(ptr noundef @.str.4)
  ret void
}